; Function Attrs: nounwind uwtable
define internal void @fn_exec_result_fl(ptr noundef %0, i32 noundef %1, i64 %2, i32 noundef %3, i32 noundef %4) #0 {
  %6 = alloca %struct.strbuf, align 8
  call void @llvm.lifetime.start.p0(i64 24, ptr nonnull %6) #7
  call void @llvm.memcpy.p0.p0.i64(ptr noundef nonnull align 8 dereferenceable(24) %6, ptr noundef nonnull align 8 dereferenceable(24) @__const.fn_counter.buf_payload, i64 24, i1 false)
  call void (ptr, ptr, ...) @strbuf_addf(ptr noundef nonnull %6, ptr noundef nonnull @.str.25, i32 noundef %3, i32 noundef %4) #7
  %7 = icmp sgt i32 %4, 0
  br i1 %7, label %8, label %10

8:                                                ; preds = %5
  %9 = call ptr @strerror(i32 noundef %4) #7
  call void (ptr, ptr, ...) @strbuf_addf(ptr noundef nonnull %6, ptr noundef nonnull @.str.26, ptr noundef %9) #7
  br label %10

10:                                               ; preds = %8, %5
  call fastcc void @normal_io_write_fl(ptr noundef %0, i32 noundef %1, ptr noundef %6)
  call void @strbuf_release(ptr noundef nonnull %6) #7
  call void @llvm.lifetime.end.p0(i64 24, ptr nonnull %6) #7
  ret void
}